target datalayout = "e-m:e-p270:32:32-p271:32:32-p272:64:64-i64:64-i128:128-f80:128-n8:16:32:64-S128"
target triple = "x86_64-pc-linux-gnu"

%"class.nanogui::Color" = type { %"struct.nanogui::Array" }
%"struct.nanogui::Array" = type { [4 x float] }
%"struct.nanogui::Array.37" = type { [3 x float] }
%"class.tev::ImageCanvas" = type { %"class.nanogui::Canvas.base", float, float, float, float, i8, %"class.std::__1::shared_ptr", %"class.std::__1::shared_ptr", %"class.std::__1::basic_string", %"struct.nanogui::Matrix", %"class.std::__1::unique_ptr", i32, i32, %"class.std::__1::optional", %"class.std::__1::map", %"class.std::__1::map.25" }
%"class.nanogui::Canvas.base" = type <{ %"class.nanogui::Widget.base", [4 x i8], %"class.nanogui::ref.11", i8, [3 x i8], %"class.nanogui::Color", i8 }>
%"class.nanogui::Widget.base" = type <{ %"class.nanogui::Object.base", [4 x i8], ptr, %"class.nanogui::ref", %"class.nanogui::ref.1", %"struct.nanogui::Array.2", %"struct.nanogui::Array.2", %"struct.nanogui::Array.2", %"class.std::__1::vector", i8, i8, i8, i8, [4 x i8], %"class.std::__1::basic_string", i32, float, i32 }>
%"class.nanogui::Object.base" = type <{ ptr, %"struct.std::__1::atomic" }>
%"struct.std::__1::atomic" = type { %"struct.std::__1::__atomic_base" }
%"struct.std::__1::__atomic_base" = type { %"struct.std::__1::__atomic_base.0" }
%"struct.std::__1::__atomic_base.0" = type { %"struct.std::__1::__cxx_atomic_impl" }
%"struct.std::__1::__cxx_atomic_impl" = type { %"struct.std::__1::__cxx_atomic_base_impl" }
%"struct.std::__1::__cxx_atomic_base_impl" = type { i32 }
%"class.nanogui::ref" = type { ptr }
%"class.nanogui::ref.1" = type { ptr }
%"struct.nanogui::Array.2" = type { [2 x i32] }
%"class.std::__1::vector" = type { ptr, ptr, %"class.std::__1::__compressed_pair" }
%"class.std::__1::__compressed_pair" = type { %"struct.std::__1::__compressed_pair_elem" }
%"struct.std::__1::__compressed_pair_elem" = type { ptr }
%"class.nanogui::ref.11" = type { ptr }
%"class.std::__1::shared_ptr" = type { ptr, ptr }
%"class.std::__1::basic_string" = type { %"class.std::__1::__compressed_pair.4" }
%"class.std::__1::__compressed_pair.4" = type { %"struct.std::__1::__compressed_pair_elem.5" }
%"struct.std::__1::__compressed_pair_elem.5" = type { %"struct.std::__1::basic_string<char>::__rep" }
%"struct.std::__1::basic_string<char>::__rep" = type { %union.anon }
%union.anon = type { %"struct.std::__1::basic_string<char>::__long" }
%"struct.std::__1::basic_string<char>::__long" = type { %struct.anon.6, i64, ptr }
%struct.anon.6 = type { i64 }
%"struct.nanogui::Matrix" = type { [3 x [3 x float]] }
%"class.std::__1::unique_ptr" = type { %"class.std::__1::__compressed_pair.12" }
%"class.std::__1::__compressed_pair.12" = type { %"struct.std::__1::__compressed_pair_elem.13" }
%"struct.std::__1::__compressed_pair_elem.13" = type { ptr }
%"class.std::__1::optional" = type { %"struct.std::__1::__optional_move_assign_base.base", [3 x i8] }
%"struct.std::__1::__optional_move_assign_base.base" = type { %"struct.std::__1::__optional_copy_assign_base.base" }
%"struct.std::__1::__optional_copy_assign_base.base" = type { %"struct.std::__1::__optional_move_base.base" }
%"struct.std::__1::__optional_move_base.base" = type { %"struct.std::__1::__optional_copy_base.base" }
%"struct.std::__1::__optional_copy_base.base" = type { %"struct.std::__1::__optional_storage_base.base" }
%"struct.std::__1::__optional_storage_base.base" = type { %"struct.std::__1::__optional_destruct_base.base" }
%"struct.std::__1::__optional_destruct_base.base" = type <{ %union.anon.15, i8 }>
%union.anon.15 = type { %"struct.tev::Box" }
%"struct.tev::Box" = type { %"struct.nanogui::Array.2", %"struct.nanogui::Array.2" }
%"class.std::__1::map" = type { %"class.std::__1::__tree" }
%"class.std::__1::__tree" = type { ptr, %"class.std::__1::__compressed_pair.16", %"class.std::__1::__compressed_pair.22" }
%"class.std::__1::__compressed_pair.16" = type { %"struct.std::__1::__compressed_pair_elem.17" }
%"struct.std::__1::__compressed_pair_elem.17" = type { %"class.std::__1::__tree_end_node" }
%"class.std::__1::__tree_end_node" = type { ptr }
%"class.std::__1::__compressed_pair.22" = type { %"struct.std::__1::__compressed_pair_elem.23" }
%"struct.std::__1::__compressed_pair_elem.23" = type { i64 }
%"class.std::__1::map.25" = type { %"class.std::__1::__tree.26" }
%"class.std::__1::__tree.26" = type { ptr, %"class.std::__1::__compressed_pair.27", %"class.std::__1::__compressed_pair.32" }
%"class.std::__1::__compressed_pair.27" = type { %"struct.std::__1::__compressed_pair_elem.17" }
%"class.std::__1::__compressed_pair.32" = type { %"struct.std::__1::__compressed_pair_elem.23" }
%"class.std::__1::vector.94" = type { ptr, ptr, %"class.std::__1::__compressed_pair.95" }
%"class.std::__1::__compressed_pair.95" = type { %"struct.std::__1::__compressed_pair_elem.96" }
%"struct.std::__1::__compressed_pair_elem.96" = type { ptr }
%"class.std::__1::vector.132" = type { ptr, ptr, %"class.std::__1::__compressed_pair.133" }
%"class.std::__1::__compressed_pair.133" = type { %"struct.std::__1::__compressed_pair_elem.134" }
%"struct.std::__1::__compressed_pair_elem.134" = type { ptr }
%class.anon.135 = type { ptr, ptr, ptr }

; Function Attrs: mustprogress nounwind uwtable
define linkonce_odr hidden noundef float @_ZNSt3__16__math3powB8ne190000Eff(float noundef %0, float noundef %1) #1 comdat {
  %3 = alloca float, align 4
  %4 = alloca float, align 4
  store float %0, ptr %3, align 4
  store float %1, ptr %4, align 4
  %5 = load float, ptr %3, align 4
  %6 = load float, ptr %4, align 4
  %7 = call float @powf(float noundef %5, float noundef %6) #12
  ret float %7
}

; Function Attrs: mustprogress nounwind uwtable
define linkonce_odr hidden noundef nonnull align 1 dereferenceable(1) ptr @_ZNSt3__16vectorIcNS_9allocatorIcEEEixB8ne190000Em(ptr noundef nonnull align 8 dereferenceable(24) %0, i64 noundef %1) #1 comdat align 2 {
  %3 = alloca ptr, align 8
  %4 = alloca i64, align 8
  store ptr %0, ptr %3, align 8
  store i64 %1, ptr %4, align 8
  %5 = load ptr, ptr %3, align 8
  %6 = getelementptr inbounds %"class.std::__1::vector.132", ptr %5, i32 0, i32 0
  %7 = load ptr, ptr %6, align 8
  %8 = load i64, ptr %4, align 8
  %9 = getelementptr inbounds i8, ptr %7, i64 %8
  ret ptr %9
}

; Function Attrs: mustprogress nounwind uwtable
define linkonce_odr dso_local noundef nonnull align 4 dereferenceable(4) ptr @_ZN7nanogui5ArrayIfLm3EEixEm(ptr noundef nonnull align 4 dereferenceable(12) %0, i64 noundef %1) #1 comdat align 2 {
  %3 = alloca ptr, align 8
  %4 = alloca i64, align 8
  store ptr %0, ptr %3, align 8
  store i64 %1, ptr %4, align 8
  %5 = load ptr, ptr %3, align 8
  %6 = getelementptr inbounds %"struct.nanogui::Array.37", ptr %5, i32 0, i32 0
  %7 = load i64, ptr %4, align 8
  %8 = getelementptr inbounds [3 x float], ptr %6, i64 0, i64 %7
  ret ptr %8
}

; Function Attrs: mustprogress uwtable
define linkonce_odr dso_local { <2 x float>, float } @_ZNK3tev11ImageCanvas12applyTonemapERKN7nanogui5ArrayIfLm3EEE(ptr noundef nonnull align 8 dereferenceable(376) %0, ptr noundef nonnull align 4 dereferenceable(12) %1) #7 comdat align 2 {
  %3 = alloca %"struct.nanogui::Array.37", align 4
  %4 = alloca ptr, align 8
  %5 = alloca ptr, align 8
  %6 = alloca { <2 x float>, float }, align 8
  %7 = alloca { <2 x float>, float }, align 8
  store ptr %0, ptr %4, align 8
  store ptr %1, ptr %5, align 8
  %8 = load ptr, ptr %4, align 8
  %9 = load ptr, ptr %5, align 8
  %10 = getelementptr inbounds %"class.tev::ImageCanvas", ptr %8, i32 0, i32 4
  %11 = load float, ptr %10, align 4
  %12 = getelementptr inbounds %"class.tev::ImageCanvas", ptr %8, i32 0, i32 11
  %13 = load i32, ptr %12, align 8
  %14 = call { <2 x float>, float } @_ZN3tev11ImageCanvas12applyTonemapERKN7nanogui5ArrayIfLm3EEEfNS_8ETonemapE(ptr noundef nonnull align 4 dereferenceable(12) %9, float noundef %11, i32 noundef %13)
  %15 = getelementptr inbounds %"struct.nanogui::Array.37", ptr %3, i32 0, i32 0
  store { <2 x float>, float } %14, ptr %6, align 8
  call void @llvm.memcpy.p0.p0.i64(ptr align 4 %15, ptr align 8 %6, i64 12, i1 false)
  %16 = getelementptr inbounds %"struct.nanogui::Array.37", ptr %3, i32 0, i32 0
  call void @llvm.memcpy.p0.p0.i64(ptr align 8 %7, ptr align 4 %16, i64 12, i1 false)
  %17 = load { <2 x float>, float }, ptr %7, align 8
  ret { <2 x float>, float } %17
}

; Function Attrs: mustprogress nounwind uwtable
define linkonce_odr dso_local void @_ZN7nanogui5ArrayIfLm3EEC2ILm3ETnNSt3__19enable_ifIXeqT_Li3EEiE4typeELi0EEEfff(ptr noundef nonnull align 4 dereferenceable(12) %0, float noundef %1, float noundef %2, float noundef %3) unnamed_addr #1 comdat align 2 {
  %5 = alloca ptr, align 8
  %6 = alloca float, align 4
  %7 = alloca float, align 4
  %8 = alloca float, align 4
  store ptr %0, ptr %5, align 8
  store float %1, ptr %6, align 4
  store float %2, ptr %7, align 4
  store float %3, ptr %8, align 4
  %9 = load ptr, ptr %5, align 8
  %10 = load float, ptr %6, align 4
  %11 = getelementptr inbounds %"struct.nanogui::Array.37", ptr %9, i32 0, i32 0
  %12 = getelementptr inbounds [3 x float], ptr %11, i64 0, i64 0
  store float %10, ptr %12, align 4
  %13 = load float, ptr %7, align 4
  %14 = getelementptr inbounds %"struct.nanogui::Array.37", ptr %9, i32 0, i32 0
  %15 = getelementptr inbounds [3 x float], ptr %14, i64 0, i64 1
  store float %13, ptr %15, align 4
  %16 = load float, ptr %8, align 4
  %17 = getelementptr inbounds %"struct.nanogui::Array.37", ptr %9, i32 0, i32 0
  %18 = getelementptr inbounds [3 x float], ptr %17, i64 0, i64 2
  store float %16, ptr %18, align 4
  ret void
}

; Function Attrs: mustprogress nounwind uwtable
define dso_local noundef float @_ZNK3tev11ImageCanvas22applyExposureAndOffsetEf(ptr noundef nonnull align 8 dereferenceable(376) %0, float noundef %1) #1 align 2 {
  %3 = alloca ptr, align 8
  %4 = alloca float, align 4
  store ptr %0, ptr %3, align 8
  store float %1, ptr %4, align 4
  %5 = load ptr, ptr %3, align 8
  %6 = getelementptr inbounds %"class.tev::ImageCanvas", ptr %5, i32 0, i32 2
  %7 = load float, ptr %6, align 4
  %8 = call noundef float @_ZNSt3__16__math3powB8ne190000Eff(float noundef 2.000000e+00, float noundef %7) #12
  %9 = load float, ptr %4, align 4
  %10 = getelementptr inbounds %"class.tev::ImageCanvas", ptr %5, i32 0, i32 3
  %11 = load float, ptr %10, align 8
  %12 = call float @llvm.fmuladd.f32(float %8, float %9, float %11)
  ret float %12
}

; Function Attrs: mustprogress nounwind uwtable
define linkonce_odr hidden noundef nonnull align 4 dereferenceable(4) ptr @_ZNSt3__16vectorIfNS_9allocatorIfEEEixB8ne190000Em(ptr noundef nonnull align 8 dereferenceable(24) %0, i64 noundef %1) #1 comdat align 2 {
  %3 = alloca ptr, align 8
  %4 = alloca i64, align 8
  store ptr %0, ptr %3, align 8
  store i64 %1, ptr %4, align 8
  %5 = load ptr, ptr %3, align 8
  %6 = getelementptr inbounds %"class.std::__1::vector.94", ptr %5, i32 0, i32 0
  %7 = load ptr, ptr %6, align 8
  %8 = load i64, ptr %4, align 8
  %9 = getelementptr inbounds float, ptr %7, i64 %8
  ret ptr %9
}

; Function Attrs: mustprogress uwtable
define internal void @"_ZZNK3tev11ImageCanvas15getLdrImageDataEbiENK3$_0clEm"(ptr noundef nonnull align 8 dereferenceable(24) %0, i64 noundef %1) #7 align 2 {
  %3 = alloca ptr, align 8
  %4 = alloca i64, align 8
  %5 = alloca i64, align 8
  %6 = alloca %"struct.nanogui::Array.37", align 4
  %7 = alloca %"struct.nanogui::Array.37", align 4
  %8 = alloca { <2 x float>, float }, align 8
  %9 = alloca i32, align 4
  %10 = alloca i32, align 4
  store ptr %0, ptr %3, align 8
  store i64 %1, ptr %4, align 8
  %11 = load ptr, ptr %3, align 8
  %12 = getelementptr inbounds %class.anon.135, ptr %11, i32 0, i32 0
  %13 = load ptr, ptr %12, align 8
  %14 = load i64, ptr %4, align 8
  %15 = mul i64 4, %14
  store i64 %15, ptr %5, align 8
  %16 = getelementptr inbounds %class.anon.135, ptr %11, i32 0, i32 1
  %17 = load ptr, ptr %16, align 8
  %18 = load i64, ptr %5, align 8
  %19 = call noundef nonnull align 4 dereferenceable(4) ptr @_ZNSt3__16vectorIfNS_9allocatorIfEEEixB8ne190000Em(ptr noundef nonnull align 8 dereferenceable(24) %17, i64 noundef %18) #12
  %20 = load float, ptr %19, align 4
  %21 = call noundef float @_ZNK3tev11ImageCanvas22applyExposureAndOffsetEf(ptr noundef nonnull align 8 dereferenceable(376) %13, float noundef %20)
  %22 = getelementptr inbounds %class.anon.135, ptr %11, i32 0, i32 1
  %23 = load ptr, ptr %22, align 8
  %24 = load i64, ptr %5, align 8
  %25 = add i64 %24, 1
  %26 = call noundef nonnull align 4 dereferenceable(4) ptr @_ZNSt3__16vectorIfNS_9allocatorIfEEEixB8ne190000Em(ptr noundef nonnull align 8 dereferenceable(24) %23, i64 noundef %25) #12
  %27 = load float, ptr %26, align 4
  %28 = call noundef float @_ZNK3tev11ImageCanvas22applyExposureAndOffsetEf(ptr noundef nonnull align 8 dereferenceable(376) %13, float noundef %27)
  %29 = getelementptr inbounds %class.anon.135, ptr %11, i32 0, i32 1
  %30 = load ptr, ptr %29, align 8
  %31 = load i64, ptr %5, align 8
  %32 = add i64 %31, 2
  %33 = call noundef nonnull align 4 dereferenceable(4) ptr @_ZNSt3__16vectorIfNS_9allocatorIfEEEixB8ne190000Em(ptr noundef nonnull align 8 dereferenceable(24) %30, i64 noundef %32) #12
  %34 = load float, ptr %33, align 4
  %35 = call noundef float @_ZNK3tev11ImageCanvas22applyExposureAndOffsetEf(ptr noundef nonnull align 8 dereferenceable(376) %13, float noundef %34)
  call void @_ZN7nanogui5ArrayIfLm3EEC2ILm3ETnNSt3__19enable_ifIXeqT_Li3EEiE4typeELi0EEEfff(ptr noundef nonnull align 4 dereferenceable(12) %7, float noundef %21, float noundef %28, float noundef %35)
  %36 = call { <2 x float>, float } @_ZNK3tev11ImageCanvas12applyTonemapERKN7nanogui5ArrayIfLm3EEE(ptr noundef nonnull align 8 dereferenceable(376) %13, ptr noundef nonnull align 4 dereferenceable(12) %7)
  %37 = getelementptr inbounds %"struct.nanogui::Array.37", ptr %6, i32 0, i32 0
  store { <2 x float>, float } %36, ptr %8, align 8
  call void @llvm.memcpy.p0.p0.i64(ptr align 4 %37, ptr align 8 %8, i64 12, i1 false)
  store i32 0, ptr %9, align 4
  br label %38

38:                                               ; preds = %53, %2
  %39 = load i32, ptr %9, align 4
  %40 = icmp slt i32 %39, 3
  br i1 %40, label %41, label %56

41:                                               ; preds = %38
  %42 = load i32, ptr %9, align 4
  %43 = sext i32 %42 to i64
  %44 = call noundef nonnull align 4 dereferenceable(4) ptr @_ZN7nanogui5ArrayIfLm3EEixEm(ptr noundef nonnull align 4 dereferenceable(12) %6, i64 noundef %43)
  %45 = load float, ptr %44, align 4
  %46 = getelementptr inbounds %class.anon.135, ptr %11, i32 0, i32 1
  %47 = load ptr, ptr %46, align 8
  %48 = load i64, ptr %5, align 8
  %49 = load i32, ptr %9, align 4
  %50 = sext i32 %49 to i64
  %51 = add i64 %48, %50
  %52 = call noundef nonnull align 4 dereferenceable(4) ptr @_ZNSt3__16vectorIfNS_9allocatorIfEEEixB8ne190000Em(ptr noundef nonnull align 8 dereferenceable(24) %47, i64 noundef %51) #12
  store float %45, ptr %52, align 4
  br label %53

53:                                               ; preds = %41
  %54 = load i32, ptr %9, align 4
  %55 = add nsw i32 %54, 1
  store i32 %55, ptr %9, align 4
  br label %38, !llvm.loop !316

56:                                               ; preds = %38
  store i32 0, ptr %10, align 4
  br label %57

57:                                               ; preds = %78, %56
  %58 = load i32, ptr %10, align 4
  %59 = icmp slt i32 %58, 4
  br i1 %59, label %60, label %81

60:                                               ; preds = %57
  %61 = getelementptr inbounds %class.anon.135, ptr %11, i32 0, i32 1
  %62 = load ptr, ptr %61, align 8
  %63 = load i64, ptr %5, align 8
  %64 = load i32, ptr %10, align 4
  %65 = sext i32 %64 to i64
  %66 = add i64 %63, %65
  %67 = call noundef nonnull align 4 dereferenceable(4) ptr @_ZNSt3__16vectorIfNS_9allocatorIfEEEixB8ne190000Em(ptr noundef nonnull align 8 dereferenceable(24) %62, i64 noundef %66) #12
  %68 = load float, ptr %67, align 4
  %69 = call float @llvm.fmuladd.f32(float %68, float 2.550000e+02, float 5.000000e-01)
  %70 = fptosi float %69 to i8
  %71 = getelementptr inbounds %class.anon.135, ptr %11, i32 0, i32 2
  %72 = load ptr, ptr %71, align 8
  %73 = load i64, ptr %5, align 8
  %74 = load i32, ptr %10, align 4
  %75 = sext i32 %74 to i64
  %76 = add i64 %73, %75
  %77 = call noundef nonnull align 1 dereferenceable(1) ptr @_ZNSt3__16vectorIcNS_9allocatorIcEEEixB8ne190000Em(ptr noundef nonnull align 8 dereferenceable(24) %72, i64 noundef %76) #12
  store i8 %70, ptr %77, align 1
  br label %78

78:                                               ; preds = %60
  %79 = load i32, ptr %10, align 4
  %80 = add nsw i32 %79, 1
  store i32 %80, ptr %10, align 4
  br label %57, !llvm.loop !317

81:                                               ; preds = %57
  ret void
}