; Function Attrs: mustprogress uwtable
define internal fastcc void @"_ZZNK3tev11ImageCanvas15getLdrImageDataEbiENK3$_0clEm"(ptr nocapture noundef nonnull readonly align 8 dereferenceable(24) %0, i64 noundef %1) unnamed_addr #7 align 2 {
  %3 = alloca %"struct.nanogui::Array.37", align 8
  %4 = alloca %"struct.nanogui::Array.37", align 8
  %5 = load ptr, ptr %0, align 8
  %6 = shl i64 %1, 2
  %7 = getelementptr inbounds i8, ptr %0, i64 8
  %8 = load ptr, ptr %7, align 8
  %9 = load ptr, ptr %8, align 8
  %10 = getelementptr inbounds float, ptr %9, i64 %6
  %11 = load float, ptr %10, align 4
  %12 = getelementptr inbounds i8, ptr %5, i64 172
  %13 = load float, ptr %12, align 4
  %exp2f.i = tail call float @exp2f(float %13) #33
  %14 = getelementptr inbounds i8, ptr %5, i64 176
  %15 = load float, ptr %14, align 8
  %16 = load ptr, ptr %7, align 8
  %17 = or disjoint i64 %6, 1
  %18 = load ptr, ptr %16, align 8
  %19 = getelementptr inbounds float, ptr %18, i64 %17
  %20 = load float, ptr %19, align 4
  %21 = load float, ptr %12, align 4
  %exp2f.i16 = tail call float @exp2f(float %21) #33
  %22 = load float, ptr %14, align 8
  %23 = load ptr, ptr %7, align 8
  %24 = or disjoint i64 %6, 2
  %25 = load ptr, ptr %23, align 8
  %26 = getelementptr inbounds float, ptr %25, i64 %24
  %27 = load float, ptr %26, align 4
  %28 = load float, ptr %12, align 4
  %exp2f.i17 = tail call float @exp2f(float %28) #33
  %29 = load float, ptr %14, align 8
  %30 = tail call noundef float @llvm.fmuladd.f32(float %exp2f.i17, float %27, float %29)
  %31 = insertelement <2 x float> poison, float %exp2f.i, i64 0
  %32 = insertelement <2 x float> %31, float %exp2f.i16, i64 1
  %33 = insertelement <2 x float> poison, float %11, i64 0
  %34 = insertelement <2 x float> %33, float %20, i64 1
  %35 = insertelement <2 x float> poison, float %15, i64 0
  %36 = insertelement <2 x float> %35, float %22, i64 1
  %37 = tail call <2 x float> @llvm.fmuladd.v2f32(<2 x float> %32, <2 x float> %34, <2 x float> %36)
  store <2 x float> %37, ptr %4, align 8
  %38 = getelementptr inbounds i8, ptr %4, i64 8
  store float %30, ptr %38, align 8
  %39 = getelementptr inbounds i8, ptr %5, i64 180
  %40 = load float, ptr %39, align 4
  %41 = getelementptr inbounds i8, ptr %5, i64 296
  %42 = load i32, ptr %41, align 8
  %43 = call { <2 x float>, float } @_ZN3tev11ImageCanvas12applyTonemapERKN7nanogui5ArrayIfLm3EEEfNS_8ETonemapE(ptr noundef nonnull align 4 dereferenceable(12) %4, float noundef %40, i32 noundef %42)
  %.fca.0.extract = extractvalue { <2 x float>, float } %43, 0
  %.fca.1.extract = extractvalue { <2 x float>, float } %43, 1
  store <2 x float> %.fca.0.extract, ptr %3, align 8
  %.sroa.2.0..sroa_idx = getelementptr inbounds i8, ptr %3, i64 8
  store float %.fca.1.extract, ptr %.sroa.2.0..sroa_idx, align 8
  br label %45

.preheader:                                       ; preds = %45
  %44 = getelementptr inbounds i8, ptr %0, i64 16
  br label %52

45:                                               ; preds = %2, %45
  %indvars.iv = phi i64 [ 0, %2 ], [ %indvars.iv.next, %45 ]
  %46 = getelementptr inbounds [3 x float], ptr %3, i64 0, i64 %indvars.iv
  %47 = load float, ptr %46, align 4
  %48 = load ptr, ptr %7, align 8
  %49 = or disjoint i64 %6, %indvars.iv
  %50 = load ptr, ptr %48, align 8
  %51 = getelementptr inbounds float, ptr %50, i64 %49
  store float %47, ptr %51, align 4
  %indvars.iv.next = add nuw nsw i64 %indvars.iv, 1
  %exitcond.not = icmp eq i64 %indvars.iv.next, 3
  br i1 %exitcond.not, label %.preheader, label %45, !llvm.loop !1042

52:                                               ; preds = %.preheader, %52
  %indvars.iv21 = phi i64 [ 0, %.preheader ], [ %indvars.iv.next22, %52 ]
  %53 = load ptr, ptr %7, align 8
  %54 = or disjoint i64 %6, %indvars.iv21
  %55 = load ptr, ptr %53, align 8
  %56 = getelementptr inbounds float, ptr %55, i64 %54
  %57 = load float, ptr %56, align 4
  %58 = tail call float @llvm.fmuladd.f32(float %57, float 2.550000e+02, float 5.000000e-01)
  %59 = fptosi float %58 to i8
  %60 = load ptr, ptr %44, align 8
  %61 = load ptr, ptr %60, align 8
  %62 = getelementptr inbounds i8, ptr %61, i64 %54
  store i8 %59, ptr %62, align 1
  %indvars.iv.next22 = add nuw nsw i64 %indvars.iv21, 1
  %exitcond24.not = icmp eq i64 %indvars.iv.next22, 4
  br i1 %exitcond24.not, label %63, label %52, !llvm.loop !1043

63:                                               ; preds = %52
  ret void
}